target datalayout = "e-m:e-p270:32:32-p271:32:32-p272:64:64-i64:64-i128:128-f80:128-n8:16:32:64-S128"
target triple = "x86_64-pc-linux-gnu"

%"class.gmx::FlagsTemplate" = type { i64 }
%"class.std::__cxx11::basic_string" = type { %"struct.std::__cxx11::basic_string<char>::_Alloc_hider", i64, %union.anon }
%"struct.std::__cxx11::basic_string<char>::_Alloc_hider" = type { ptr }
%union.anon = type { i64, [8 x i8] }
%"class.gmx::FileNameOptionStorage" = type <{ %"class.gmx::OptionStorageTemplateSimple.base", [7 x i8], %"class.gmx::FileNameOptionInfo", ptr, i32, [4 x i8], ptr, i8, i8, i8, i8, [4 x i8] }>
%"class.gmx::OptionStorageTemplateSimple.base" = type <{ %"class.gmx::OptionStorageTemplate", %"class.gmx::OptionValueConverterSimple", i8 }>
%"class.gmx::OptionStorageTemplate" = type { %"class.gmx::AbstractOptionStorage.base", %"class.std::vector", %"class.std::unique_ptr", %"class.std::unique_ptr.5" }
%"class.gmx::AbstractOptionStorage.base" = type <{ ptr, %"class.std::__cxx11::basic_string", %"class.std::__cxx11::basic_string", %"class.gmx::FlagsTemplate", ptr, i32, i32, i8, i8 }>
%"class.std::vector" = type { %"struct.std::_Vector_base" }
%"struct.std::_Vector_base" = type { %"struct.std::_Vector_base<std::__cxx11::basic_string<char>, std::allocator<std::__cxx11::basic_string<char>>>::_Vector_impl" }
%"struct.std::_Vector_base<std::__cxx11::basic_string<char>, std::allocator<std::__cxx11::basic_string<char>>>::_Vector_impl" = type { %"struct.std::_Vector_base<std::__cxx11::basic_string<char>, std::allocator<std::__cxx11::basic_string<char>>>::_Vector_impl_data" }
%"struct.std::_Vector_base<std::__cxx11::basic_string<char>, std::allocator<std::__cxx11::basic_string<char>>>::_Vector_impl_data" = type { ptr, ptr, ptr }
%"class.std::unique_ptr" = type { %"struct.std::__uniq_ptr_data" }
%"struct.std::__uniq_ptr_data" = type { %"class.std::__uniq_ptr_impl" }
%"class.std::__uniq_ptr_impl" = type { %"class.std::tuple" }
%"class.std::tuple" = type { %"struct.std::_Tuple_impl" }
%"struct.std::_Tuple_impl" = type { %"struct.std::_Head_base.4" }
%"struct.std::_Head_base.4" = type { ptr }
%"class.std::unique_ptr.5" = type { %"struct.std::__uniq_ptr_data.6" }
%"struct.std::__uniq_ptr_data.6" = type { %"class.std::__uniq_ptr_impl.7" }
%"class.std::__uniq_ptr_impl.7" = type { %"class.std::tuple.8" }
%"class.std::tuple.8" = type { %"struct.std::_Tuple_impl.9" }
%"struct.std::_Tuple_impl.9" = type { %"struct.std::_Head_base.12" }
%"struct.std::_Head_base.12" = type { ptr }
%"class.gmx::OptionValueConverterSimple" = type { %"class.std::map" }
%"class.std::map" = type { %"class.std::_Rb_tree" }
%"class.std::_Rb_tree" = type { %"struct.std::_Rb_tree<std::type_index, std::pair<const std::type_index, std::function<std::__cxx11::basic_string<char> (const gmx::Any &)>>, std::_Select1st<std::pair<const std::type_index, std::function<std::__cxx11::basic_string<char> (const gmx::Any &)>>>, std::less<std::type_index>>::_Rb_tree_impl" }
%"struct.std::_Rb_tree<std::type_index, std::pair<const std::type_index, std::function<std::__cxx11::basic_string<char> (const gmx::Any &)>>, std::_Select1st<std::pair<const std::type_index, std::function<std::__cxx11::basic_string<char> (const gmx::Any &)>>>, std::less<std::type_index>>::_Rb_tree_impl" = type { %"struct.std::_Rb_tree_key_compare", %"struct.std::_Rb_tree_header" }
%"struct.std::_Rb_tree_key_compare" = type { %"struct.std::less" }
%"struct.std::less" = type { i8 }
%"struct.std::_Rb_tree_header" = type { %"struct.std::_Rb_tree_node_base", i64 }
%"struct.std::_Rb_tree_node_base" = type { i32, ptr, ptr, ptr }
%"class.gmx::FileNameOptionInfo" = type { %"class.gmx::OptionInfo" }
%"class.gmx::OptionInfo" = type { ptr, ptr }

; Function Attrs: mustprogress nounwind uwtable
define linkonce_odr noundef nonnull align 8 dereferenceable(98) ptr @_ZNK3gmx10OptionInfo6optionEv(ptr noundef nonnull align 8 dereferenceable(16) %0) #1 comdat align 2 {
  %2 = alloca ptr, align 8
  store ptr %0, ptr %2, align 8
  %3 = load ptr, ptr %2, align 8
  %4 = getelementptr inbounds %"class.gmx::OptionInfo", ptr %3, i32 0, i32 1
  %5 = load ptr, ptr %4, align 8
  ret ptr %5
}

; Function Attrs: mustprogress nounwind uwtable
define linkonce_odr noundef zeroext i1 @_ZNK3gmx21FileNameOptionStorage17isInputOutputFileEv(ptr noundef nonnull align 8 dereferenceable(244) %0) #1 comdat align 2 {
  %2 = alloca ptr, align 8
  store ptr %0, ptr %2, align 8
  %3 = load ptr, ptr %2, align 8
  %4 = getelementptr inbounds %"class.gmx::FileNameOptionStorage", ptr %3, i32 0, i32 7
  %5 = load i8, ptr %4, align 8
  %6 = trunc i8 %5 to i1
  br i1 %6, label %7, label %11

7:                                                ; preds = %1
  %8 = getelementptr inbounds %"class.gmx::FileNameOptionStorage", ptr %3, i32 0, i32 8
  %9 = load i8, ptr %8, align 1
  %10 = trunc i8 %9 to i1
  br label %11

11:                                               ; preds = %7, %1
  %12 = phi i1 [ false, %1 ], [ %10, %7 ]
  ret i1 %12
}

; Function Attrs: mustprogress uwtable
define noundef nonnull align 8 dereferenceable(244) ptr @_ZNK3gmx18FileNameOptionInfo6optionEv(ptr noundef nonnull align 8 dereferenceable(16) %0) #0 align 2 {
  %2 = alloca ptr, align 8
  store ptr %0, ptr %2, align 8
  %3 = load ptr, ptr %2, align 8
  %4 = call noundef nonnull align 8 dereferenceable(98) ptr @_ZNK3gmx10OptionInfo6optionEv(ptr noundef nonnull align 8 dereferenceable(16) %3)
  ret ptr %4
}

; Function Attrs: mustprogress uwtable
define noundef zeroext i1 @_ZNK3gmx18FileNameOptionInfo17isInputOutputFileEv(ptr noundef nonnull align 8 dereferenceable(16) %0) #0 align 2 {
  %2 = alloca ptr, align 8
  store ptr %0, ptr %2, align 8
  %3 = load ptr, ptr %2, align 8
  %4 = call noundef nonnull align 8 dereferenceable(244) ptr @_ZNK3gmx18FileNameOptionInfo6optionEv(ptr noundef nonnull align 8 dereferenceable(16) %3)
  %5 = call noundef zeroext i1 @_ZNK3gmx21FileNameOptionStorage17isInputOutputFileEv(ptr noundef nonnull align 8 dereferenceable(244) %4)
  ret i1 %5
}