; Function Attrs: mustprogress nofree norecurse nosync nounwind willreturn memory(read, inaccessiblemem: none) uwtable
define noundef zeroext i1 @_ZNK3gmx18FileNameOptionInfo17isInputOutputFileEv(ptr nocapture noundef nonnull readonly align 8 dereferenceable(16) %0) local_unnamed_addr #8 align 2 {
  %2 = getelementptr inbounds i8, ptr %0, i64 8
  %3 = load ptr, ptr %2, align 8
  %4 = getelementptr inbounds i8, ptr %3, i64 240
  %5 = load i8, ptr %4, align 8
  %6 = trunc i8 %5 to i1
  %7 = getelementptr inbounds i8, ptr %3, i64 241
  %8 = load i8, ptr %7, align 1
  %9 = trunc i8 %8 to i1
  %10 = select i1 %6, i1 %9, i1 false
  ret i1 %10
}